target datalayout = "e-m:e-p270:32:32-p271:32:32-p272:64:64-i64:64-i128:128-f80:128-n8:16:32:64-S128"
target triple = "x86_64-unknown-linux-gnu"

%"class.QuantLib::FdmLinearOp" = type { ptr }
%"class.std::unique_ptr" = type { %"struct.std::__uniq_ptr_data" }
%"struct.std::__uniq_ptr_data" = type { %"class.std::__uniq_ptr_impl" }
%"class.std::__uniq_ptr_impl" = type { %"class.std::tuple" }
%"class.std::tuple" = type { %"struct.std::_Tuple_impl" }
%"struct.std::_Tuple_impl" = type { %"struct.std::_Head_base.1" }
%"struct.std::_Head_base.1" = type { ptr }
%"class.boost::detail::shared_count" = type { ptr }
%"class.QuantLib::Array" = type { %"class.std::unique_ptr", i64 }
%"class.QuantLib::FdmSquareRootFwdOp" = type { %"class.QuantLib::FdmLinearOpComposite", i64, double, double, double, i32, %"class.boost::shared_ptr", %"class.QuantLib::Array" }
%"class.QuantLib::FdmLinearOpComposite" = type { %"class.QuantLib::FdmLinearOp" }
%"class.boost::shared_ptr" = type { ptr, %"class.boost::detail::shared_count" }

; Function Attrs: mustprogress uwtable
define noundef double @_ZNK8QuantLib18FdmSquareRootFwdOp2muEm(ptr noundef nonnull align 8 dereferenceable(80) %this, i64 noundef %i) #4 align 2 {
entry:
  %this.addr = alloca ptr, align 8
  %i.addr = alloca i64, align 8
  store ptr %this, ptr %this.addr, align 8, !tbaa !3
  store i64 %i, ptr %i.addr, align 8, !tbaa !9
  %this1 = load ptr, ptr %this.addr, align 8
  %kappa_ = getelementptr inbounds nuw %"class.QuantLib::FdmSquareRootFwdOp", ptr %this1, i32 0, i32 2
  %0 = load double, ptr %kappa_, align 8, !tbaa !28
  %1 = load i64, ptr %i.addr, align 8, !tbaa !9
  %call = call noundef double @_ZNK8QuantLib18FdmSquareRootFwdOp1vEm(ptr noundef nonnull align 8 dereferenceable(80) %this1, i64 noundef %1)
  %theta_ = getelementptr inbounds nuw %"class.QuantLib::FdmSquareRootFwdOp", ptr %this1, i32 0, i32 3
  %2 = load double, ptr %theta_, align 8, !tbaa !29
  %sub = fsub double %call, %2
  %sigma_ = getelementptr inbounds nuw %"class.QuantLib::FdmSquareRootFwdOp", ptr %this1, i32 0, i32 4
  %3 = load double, ptr %sigma_, align 8, !tbaa !30
  %sigma_2 = getelementptr inbounds nuw %"class.QuantLib::FdmSquareRootFwdOp", ptr %this1, i32 0, i32 4
  %4 = load double, ptr %sigma_2, align 8, !tbaa !30
  %mul3 = fmul double %3, %4
  %5 = call double @llvm.fmuladd.f64(double %0, double %sub, double %mul3)
  ret double %5
}