; Function Attrs: mustprogress uwtable
define noundef double @_ZNK8QuantLib18FdmSquareRootFwdOp2muEm(ptr nocapture noundef nonnull readonly align 8 dereferenceable(80) %this, i64 noundef %i) local_unnamed_addr #3 align 2 {
entry:
  %kappa_ = getelementptr inbounds nuw i8, ptr %this, i64 16
  %0 = load double, ptr %kappa_, align 8, !tbaa !24
  %call = tail call noundef double @_ZNK8QuantLib18FdmSquareRootFwdOp1vEm(ptr noundef nonnull align 8 dereferenceable(80) %this, i64 noundef %i)
  %theta_ = getelementptr inbounds nuw i8, ptr %this, i64 24
  %1 = load double, ptr %theta_, align 8, !tbaa !25
  %sub = fsub double %call, %1
  %sigma_ = getelementptr inbounds nuw i8, ptr %this, i64 32
  %2 = load double, ptr %sigma_, align 8, !tbaa !26
  %mul3 = fmul double %2, %2
  %3 = tail call double @llvm.fmuladd.f64(double %0, double %sub, double %mul3)
  ret double %3
}